target datalayout = "e-m:e-p270:32:32-p271:32:32-p272:64:64-i64:64-i128:128-f80:128-n8:16:32:64-S128"
target triple = "x86_64-unknown-linux-gnu"

%"class.arrow::compute::KeyColumnArray" = type { [3 x ptr], [3 x ptr], %"struct.arrow::compute::KeyColumnMetadata", i64, [2 x i32] }
%"struct.arrow::compute::KeyColumnMetadata" = type { i8, i8, i32 }

; Function Attrs: mustprogress nounwind uwtable
define void @_ZN5arrow7compute14KeyColumnArrayC2ERKNS0_17KeyColumnMetadataElPKhS6_S6_ii(ptr noundef nonnull align 8 dereferenceable(72) %this, ptr noundef nonnull align 4 dereferenceable(8) %metadata, i64 noundef %length, ptr noundef %validity_buffer, ptr noundef %fixed_length_buffer, ptr noundef %var_length_buffer, i32 noundef %bit_offset_validity, i32 noundef %bit_offset_fixed) unnamed_addr #0 align 2 {
entry:
  %this.addr = alloca ptr, align 8
  %metadata.addr = alloca ptr, align 8
  %length.addr = alloca i64, align 8
  %validity_buffer.addr = alloca ptr, align 8
  %fixed_length_buffer.addr = alloca ptr, align 8
  %var_length_buffer.addr = alloca ptr, align 8
  %bit_offset_validity.addr = alloca i32, align 4
  %bit_offset_fixed.addr = alloca i32, align 4
  store ptr %this, ptr %this.addr, align 8
  store ptr %metadata, ptr %metadata.addr, align 8
  store i64 %length, ptr %length.addr, align 8
  store ptr %validity_buffer, ptr %validity_buffer.addr, align 8
  store ptr %fixed_length_buffer, ptr %fixed_length_buffer.addr, align 8
  store ptr %var_length_buffer, ptr %var_length_buffer.addr, align 8
  store i32 %bit_offset_validity, ptr %bit_offset_validity.addr, align 4
  store i32 %bit_offset_fixed, ptr %bit_offset_fixed.addr, align 4
  %this1 = load ptr, ptr %this.addr, align 8
  %0 = load ptr, ptr %metadata.addr, align 8
  %metadata_2 = getelementptr inbounds %"class.arrow::compute::KeyColumnArray", ptr %this1, i32 0, i32 2
  call void @llvm.memcpy.p0.p0.i64(ptr align 8 %metadata_2, ptr align 4 %0, i64 8, i1 false)
  %1 = load i64, ptr %length.addr, align 8
  %length_ = getelementptr inbounds %"class.arrow::compute::KeyColumnArray", ptr %this1, i32 0, i32 3
  store i64 %1, ptr %length_, align 8
  %2 = load ptr, ptr %validity_buffer.addr, align 8
  %buffers_ = getelementptr inbounds %"class.arrow::compute::KeyColumnArray", ptr %this1, i32 0, i32 0
  %arrayidx = getelementptr inbounds [3 x ptr], ptr %buffers_, i64 0, i64 0
  store ptr %2, ptr %arrayidx, align 8
  %3 = load ptr, ptr %fixed_length_buffer.addr, align 8
  %buffers_3 = getelementptr inbounds %"class.arrow::compute::KeyColumnArray", ptr %this1, i32 0, i32 0
  %arrayidx4 = getelementptr inbounds [3 x ptr], ptr %buffers_3, i64 0, i64 1
  store ptr %3, ptr %arrayidx4, align 8
  %4 = load ptr, ptr %var_length_buffer.addr, align 8
  %buffers_5 = getelementptr inbounds %"class.arrow::compute::KeyColumnArray", ptr %this1, i32 0, i32 0
  %arrayidx6 = getelementptr inbounds [3 x ptr], ptr %buffers_5, i64 0, i64 2
  store ptr %4, ptr %arrayidx6, align 8
  %mutable_buffers_ = getelementptr inbounds %"class.arrow::compute::KeyColumnArray", ptr %this1, i32 0, i32 1
  %arrayidx7 = getelementptr inbounds [3 x ptr], ptr %mutable_buffers_, i64 0, i64 2
  store ptr null, ptr %arrayidx7, align 8
  %mutable_buffers_8 = getelementptr inbounds %"class.arrow::compute::KeyColumnArray", ptr %this1, i32 0, i32 1
  %arrayidx9 = getelementptr inbounds [3 x ptr], ptr %mutable_buffers_8, i64 0, i64 1
  store ptr null, ptr %arrayidx9, align 8
  %mutable_buffers_10 = getelementptr inbounds %"class.arrow::compute::KeyColumnArray", ptr %this1, i32 0, i32 1
  %arrayidx11 = getelementptr inbounds [3 x ptr], ptr %mutable_buffers_10, i64 0, i64 0
  store ptr null, ptr %arrayidx11, align 8
  %5 = load i32, ptr %bit_offset_validity.addr, align 4
  %bit_offset_ = getelementptr inbounds %"class.arrow::compute::KeyColumnArray", ptr %this1, i32 0, i32 4
  %arrayidx12 = getelementptr inbounds [2 x i32], ptr %bit_offset_, i64 0, i64 0
  store i32 %5, ptr %arrayidx12, align 8
  %6 = load i32, ptr %bit_offset_fixed.addr, align 4
  %bit_offset_13 = getelementptr inbounds %"class.arrow::compute::KeyColumnArray", ptr %this1, i32 0, i32 4
  %arrayidx14 = getelementptr inbounds [2 x i32], ptr %bit_offset_13, i64 0, i64 1
  store i32 %6, ptr %arrayidx14, align 4
  ret void
}